; Function Attrs: nounwind uwtable
define internal void @k_shift(ptr noundef captures(none) %0, i8 noundef zeroext %1, i8 noundef signext %2) #0 {
  %4 = getelementptr inbounds nuw i8, ptr %0, i64 56
  %5 = load i8, ptr %4, align 8
  %6 = getelementptr inbounds nuw i8, ptr %0, i64 52
  %7 = load i8, ptr %6, align 4, !range !3, !noundef !4
  %8 = trunc nuw i8 %7 to i1
  br i1 %8, label %46, label %9

9:                                                ; preds = %3
  %10 = icmp eq i8 %1, 8
  %.not = icmp eq i8 %2, 0
  br i1 %10, label %11, label %18

11:                                               ; preds = %9
  br i1 %.not, label %.thread, label %.thread38

.thread:                                          ; preds = %11
  %12 = getelementptr inbounds nuw i8, ptr %0, i64 55
  %13 = load i8, ptr %12, align 1
  %14 = and i8 %13, -5
  store i8 %14, ptr %12, align 1
  %15 = load i32, ptr %0, align 8
  %16 = zext i8 %14 to i64
  %17 = tail call i32 (i32, i64, ...) @ioctl(i32 noundef %15, i64 noundef 19250, i64 noundef %16) #12
  br label %25

18:                                               ; preds = %9
  br i1 %.not, label %25, label %.thread38

.thread38:                                        ; preds = %11, %18
  %.041 = phi i8 [ %1, %18 ], [ 0, %11 ]
  %19 = getelementptr inbounds nuw i8, ptr %0, i64 24
  %20 = zext i8 %.041 to i64
  %21 = getelementptr inbounds nuw [9 x i8], ptr %19, i64 0, i64 %20
  %22 = load i8, ptr %21, align 1
  %.not27 = icmp eq i8 %22, 0
  br i1 %.not27, label %31, label %23

23:                                               ; preds = %.thread38
  %24 = add i8 %22, -1
  store i8 %24, ptr %21, align 1
  br label %31

25:                                               ; preds = %.thread, %18
  %.035 = phi i8 [ 0, %.thread ], [ %1, %18 ]
  %26 = getelementptr inbounds nuw i8, ptr %0, i64 24
  %27 = zext i8 %.035 to i64
  %28 = getelementptr inbounds nuw [9 x i8], ptr %26, i64 0, i64 %27
  %29 = load i8, ptr %28, align 1
  %30 = add i8 %29, 1
  store i8 %30, ptr %28, align 1
  br label %31

31:                                               ; preds = %.thread38, %23, %25
  %.pre-phi = phi i64 [ %20, %.thread38 ], [ %20, %23 ], [ %27, %25 ]
  %.not2636 = phi i1 [ false, %.thread38 ], [ false, %23 ], [ true, %25 ]
  %.034 = phi i8 [ %.041, %.thread38 ], [ %.041, %23 ], [ %.035, %25 ]
  %32 = getelementptr inbounds nuw i8, ptr %0, i64 24
  %33 = getelementptr inbounds nuw [9 x i8], ptr %32, i64 0, i64 %.pre-phi
  %34 = load i8, ptr %33, align 1
  %.not28 = icmp eq i8 %34, 0
  %35 = zext nneg i8 %.034 to i32
  %36 = shl nuw i32 1, %35
  %37 = load i8, ptr %4, align 8
  %38 = trunc i32 %36 to i8
  %39 = xor i8 %38, -1
  %40 = and i8 %37, %39
  %41 = or i8 %37, %38
  %storemerge = select i1 %.not28, i8 %40, i8 %41
  store i8 %storemerge, ptr %4, align 8
  %.not30 = icmp eq i8 %storemerge, %5
  %or.cond = select i1 %.not2636, i1 true, i1 %.not30
  br i1 %or.cond, label %46, label %42

42:                                               ; preds = %31
  %43 = getelementptr inbounds nuw i8, ptr %0, i64 36
  %44 = load i32, ptr %43, align 4
  %.not31 = icmp eq i32 %44, -1
  br i1 %.not31, label %46, label %45

45:                                               ; preds = %42
  tail call fastcc void @put_utf8(ptr noundef nonnull %0, i32 noundef %44)
  store i32 -1, ptr %43, align 4
  br label %46

46:                                               ; preds = %31, %42, %45, %3
  ret void
}